target datalayout = "e-m:e-p270:32:32-p271:32:32-p272:64:64-i64:64-i128:128-f80:128-n8:16:32:64-S128"
target triple = "x86_64-pc-linux-gnu"

%struct.jpeg_compress_struct = type { ptr, ptr, ptr, ptr, i32, i32, ptr, i32, i32, i32, i32, double, i32, i32, i32, ptr, [4 x ptr], [4 x ptr], [4 x ptr], [16 x i8], [16 x i8], [16 x i8], i32, ptr, i32, i32, i32, i32, i32, i32, i32, i32, i32, i8, i8, i8, i16, i16, i32, i32, i32, i32, i32, i32, i32, [4 x ptr], i32, i32, i32, [10 x i32], i32, i32, i32, i32, ptr, ptr, ptr, ptr, ptr, ptr, ptr, ptr, ptr, ptr, i32 }
%struct.jpeg_error_mgr = type { ptr, ptr, ptr, ptr, ptr, i32, %union.anon, i32, i64, ptr, i32, ptr, i32, i32 }
%union.anon = type { [8 x i32], [48 x i8] }
%struct.jpeg_marker_writer = type { ptr, ptr, ptr, ptr, ptr, ptr, ptr }
%struct.jpeg_destination_mgr = type { ptr, i64, ptr, ptr, ptr }

; Function Attrs: nounwind uwtable
define void @jpeg_write_tables(ptr noundef %0) #0 {
  %2 = alloca ptr, align 8
  store ptr %0, ptr %2, align 8, !tbaa !3
  %3 = load ptr, ptr %2, align 8, !tbaa !3
  %4 = getelementptr inbounds nuw %struct.jpeg_compress_struct, ptr %3, i32 0, i32 5
  %5 = load i32, ptr %4, align 4, !tbaa !48
  %6 = icmp ne i32 %5, 100
  br i1 %6, label %7, label %26

7:                                                ; preds = %1
  %8 = load ptr, ptr %2, align 8, !tbaa !3
  %9 = getelementptr inbounds nuw %struct.jpeg_compress_struct, ptr %8, i32 0, i32 0
  %10 = load ptr, ptr %9, align 8, !tbaa !29
  %11 = getelementptr inbounds nuw %struct.jpeg_error_mgr, ptr %10, i32 0, i32 5
  store i32 20, ptr %11, align 8, !tbaa !30
  %12 = load ptr, ptr %2, align 8, !tbaa !3
  %13 = getelementptr inbounds nuw %struct.jpeg_compress_struct, ptr %12, i32 0, i32 5
  %14 = load i32, ptr %13, align 4, !tbaa !48
  %15 = load ptr, ptr %2, align 8, !tbaa !3
  %16 = getelementptr inbounds nuw %struct.jpeg_compress_struct, ptr %15, i32 0, i32 0
  %17 = load ptr, ptr %16, align 8, !tbaa !29
  %18 = getelementptr inbounds nuw %struct.jpeg_error_mgr, ptr %17, i32 0, i32 6
  %19 = getelementptr inbounds [8 x i32], ptr %18, i64 0, i64 0
  store i32 %14, ptr %19, align 4, !tbaa !33
  %20 = load ptr, ptr %2, align 8, !tbaa !3
  %21 = getelementptr inbounds nuw %struct.jpeg_compress_struct, ptr %20, i32 0, i32 0
  %22 = load ptr, ptr %21, align 8, !tbaa !29
  %23 = getelementptr inbounds nuw %struct.jpeg_error_mgr, ptr %22, i32 0, i32 0
  %24 = load ptr, ptr %23, align 8, !tbaa !34
  %25 = load ptr, ptr %2, align 8, !tbaa !3
  call void %24(ptr noundef %25)
  br label %26

26:                                               ; preds = %7, %1
  %27 = load ptr, ptr %2, align 8, !tbaa !3
  %28 = getelementptr inbounds nuw %struct.jpeg_compress_struct, ptr %27, i32 0, i32 0
  %29 = load ptr, ptr %28, align 8, !tbaa !29
  %30 = getelementptr inbounds nuw %struct.jpeg_error_mgr, ptr %29, i32 0, i32 4
  %31 = load ptr, ptr %30, align 8, !tbaa !86
  %32 = load ptr, ptr %2, align 8, !tbaa !3
  call void %31(ptr noundef %32)
  %33 = load ptr, ptr %2, align 8, !tbaa !3
  %34 = getelementptr inbounds nuw %struct.jpeg_compress_struct, ptr %33, i32 0, i32 6
  %35 = load ptr, ptr %34, align 8, !tbaa !40
  %36 = getelementptr inbounds nuw %struct.jpeg_destination_mgr, ptr %35, i32 0, i32 2
  %37 = load ptr, ptr %36, align 8, !tbaa !87
  %38 = load ptr, ptr %2, align 8, !tbaa !3
  call void %37(ptr noundef %38)
  %39 = load ptr, ptr %2, align 8, !tbaa !3
  call void @jinit_marker_writer(ptr noundef %39)
  %40 = load ptr, ptr %2, align 8, !tbaa !3
  %41 = getelementptr inbounds nuw %struct.jpeg_compress_struct, ptr %40, i32 0, i32 58
  %42 = load ptr, ptr %41, align 8, !tbaa !76
  %43 = getelementptr inbounds nuw %struct.jpeg_marker_writer, ptr %42, i32 0, i32 4
  %44 = load ptr, ptr %43, align 8, !tbaa !88
  %45 = load ptr, ptr %2, align 8, !tbaa !3
  call void %44(ptr noundef %45)
  %46 = load ptr, ptr %2, align 8, !tbaa !3
  %47 = getelementptr inbounds nuw %struct.jpeg_compress_struct, ptr %46, i32 0, i32 6
  %48 = load ptr, ptr %47, align 8, !tbaa !40
  %49 = getelementptr inbounds nuw %struct.jpeg_destination_mgr, ptr %48, i32 0, i32 4
  %50 = load ptr, ptr %49, align 8, !tbaa !79
  %51 = load ptr, ptr %2, align 8, !tbaa !3
  call void %50(ptr noundef %51)
  ret void
}