; Function Attrs: nounwind uwtable
define void @jpeg_write_tables(ptr noundef %0) local_unnamed_addr #0 {
  %2 = getelementptr inbounds nuw i8, ptr %0, i64 36
  %3 = load i32, ptr %2, align 4, !tbaa !37
  %.not = icmp eq i32 %3, 100
  br i1 %.not, label %10, label %4

4:                                                ; preds = %1
  %5 = load ptr, ptr %0, align 8, !tbaa !24
  %6 = getelementptr inbounds nuw i8, ptr %5, i64 40
  store i32 20, ptr %6, align 8, !tbaa !25
  %7 = getelementptr inbounds nuw i8, ptr %5, i64 44
  store i32 %3, ptr %7, align 4, !tbaa !29
  %8 = load ptr, ptr %0, align 8, !tbaa !24
  %9 = load ptr, ptr %8, align 8, !tbaa !30
  tail call void %9(ptr noundef nonnull %0) #4
  br label %10

10:                                               ; preds = %4, %1
  %11 = load ptr, ptr %0, align 8, !tbaa !24
  %12 = getelementptr inbounds nuw i8, ptr %11, i64 32
  %13 = load ptr, ptr %12, align 8, !tbaa !76
  tail call void %13(ptr noundef nonnull %0) #4
  %14 = getelementptr inbounds nuw i8, ptr %0, i64 40
  %15 = load ptr, ptr %14, align 8, !tbaa !33
  %16 = getelementptr inbounds nuw i8, ptr %15, i64 16
  %17 = load ptr, ptr %16, align 8, !tbaa !77
  tail call void %17(ptr noundef nonnull %0) #4
  tail call void @jinit_marker_writer(ptr noundef nonnull %0) #4
  %18 = getelementptr inbounds nuw i8, ptr %0, i64 464
  %19 = load ptr, ptr %18, align 8, !tbaa !67
  %20 = getelementptr inbounds nuw i8, ptr %19, i64 32
  %21 = load ptr, ptr %20, align 8, !tbaa !78
  tail call void %21(ptr noundef nonnull %0) #4
  %22 = load ptr, ptr %14, align 8, !tbaa !33
  %23 = getelementptr inbounds nuw i8, ptr %22, i64 32
  %24 = load ptr, ptr %23, align 8, !tbaa !70
  tail call void %24(ptr noundef nonnull %0) #4
  ret void
}